target datalayout = "e-m:e-p270:32:32-p271:32:32-p272:64:64-i64:64-i128:128-f80:128-n8:16:32:64-S128"
target triple = "x86_64-pc-linux-gnu"

; Function Attrs: nounwind uwtable
define dso_local i32 @zipStorePrevEntryLengthLarge(ptr noundef %0, i32 noundef %1) #0 {
  %3 = alloca ptr, align 8
  %4 = alloca i32, align 4
  %5 = alloca i32, align 4
  store ptr %0, ptr %3, align 8, !tbaa !5
  store i32 %1, ptr %4, align 4, !tbaa !12
  call void @llvm.lifetime.start.p0(i64 4, ptr %5) #11
  %6 = load ptr, ptr %3, align 8, !tbaa !5
  %7 = icmp ne ptr %6, null
  br i1 %7, label %8, label %14

8:                                                ; preds = %2
  %9 = load ptr, ptr %3, align 8, !tbaa !5
  %10 = getelementptr inbounds i8, ptr %9, i64 0
  store i8 -2, ptr %10, align 1, !tbaa !14
  %11 = load i32, ptr %4, align 4, !tbaa !12
  store i32 %11, ptr %5, align 4, !tbaa !12
  %12 = load ptr, ptr %3, align 8, !tbaa !5
  %13 = getelementptr inbounds i8, ptr %12, i64 1
  call void @llvm.memcpy.p0.p0.i64(ptr align 1 %13, ptr align 4 %5, i64 4, i1 false)
  br label %14

14:                                               ; preds = %8, %2
  call void @llvm.lifetime.end.p0(i64 4, ptr %5) #11
  ret i32 5
}