; Function Attrs: mustprogress nofree norecurse nosync nounwind willreturn memory(argmem: write) uwtable
define dso_local noundef i32 @zipStorePrevEntryLengthLarge(ptr noundef writeonly captures(address_is_null) %0, i32 noundef %1) local_unnamed_addr #4 {
  %.not = icmp eq ptr %0, null
  br i1 %.not, label %5, label %3

3:                                                ; preds = %2
  store i8 -2, ptr %0, align 1, !tbaa !9
  %4 = getelementptr inbounds nuw i8, ptr %0, i64 1
  store i32 %1, ptr %4, align 1
  br label %5

5:                                                ; preds = %3, %2
  ret i32 5
}